target datalayout = "e-m:e-p270:32:32-p271:32:32-p272:64:64-i64:64-i128:128-f80:128-n8:16:32:64-S128"
target triple = "x86_64-unknown-linux-gnu"

%"class.icu_75::UObject" = type { ptr }
%"class.icu_75::UnicodeString" = type { %"class.icu_75::Replaceable", %"union.icu_75::UnicodeString::StackBufferOrFields" }
%"class.icu_75::Replaceable" = type { %"class.icu_75::UObject" }
%"union.icu_75::UnicodeString::StackBufferOrFields" = type { %struct.anon.0, [32 x i8] }
%struct.anon.0 = type { i16, i32, i32, ptr }
%"class.icu_75::Formattable" = type { %"class.icu_75::UObject", %union.anon, ptr, ptr, i32, %"class.icu_75::UnicodeString" }
%union.anon = type { %struct.anon.1 }
%struct.anon.1 = type { ptr, i32 }

; Function Attrs: mustprogress nounwind uwtable
define linkonce_odr noundef i32 @_ZNK6icu_7511Formattable7getLongEv(ptr noundef nonnull align 8 dereferenceable(112) %this) #0 comdat align 2 {
entry:
  %this.addr = alloca ptr, align 8
  store ptr %this, ptr %this.addr, align 8
  %this1 = load ptr, ptr %this.addr, align 8
  %fValue = getelementptr inbounds %"class.icu_75::Formattable", ptr %this1, i32 0, i32 1
  %0 = load i64, ptr %fValue, align 8
  %conv = trunc i64 %0 to i32
  ret i32 %conv
}

; Function Attrs: mustprogress nounwind uwtable
define linkonce_odr noundef double @_ZNK6icu_7511Formattable9getDoubleEv(ptr noundef nonnull align 8 dereferenceable(112) %this) #0 comdat align 2 {
entry:
  %this.addr = alloca ptr, align 8
  store ptr %this, ptr %this.addr, align 8
  %this1 = load ptr, ptr %this.addr, align 8
  %fValue = getelementptr inbounds %"class.icu_75::Formattable", ptr %this1, i32 0, i32 1
  %0 = load double, ptr %fValue, align 8
  ret double %0
}

; Function Attrs: mustprogress nounwind uwtable
define linkonce_odr noundef double @_ZNK6icu_7511Formattable7getDateEv(ptr noundef nonnull align 8 dereferenceable(112) %this) #0 comdat align 2 {
entry:
  %this.addr = alloca ptr, align 8
  store ptr %this, ptr %this.addr, align 8
  %this1 = load ptr, ptr %this.addr, align 8
  %fValue = getelementptr inbounds %"class.icu_75::Formattable", ptr %this1, i32 0, i32 1
  %0 = load double, ptr %fValue, align 8
  ret double %0
}

; Function Attrs: mustprogress nounwind uwtable
define internal noundef signext i8 @_ZL9U_FAILURE10UErrorCode(i32 noundef %code) #0 {
entry:
  %code.addr = alloca i32, align 4
  store i32 %code, ptr %code.addr, align 4
  %0 = load i32, ptr %code.addr, align 4
  %cmp = icmp sgt i32 %0, 0
  %conv = zext i1 %cmp to i8
  ret i8 %conv
}

; Function Attrs: mustprogress uwtable
define noundef nonnull align 8 dereferenceable(64) ptr @_ZNK6icu_7510DateFormat6formatERKNS_11FormattableERNS_13UnicodeStringERNS_13FieldPositionER10UErrorCode(ptr noundef nonnull align 8 dereferenceable(352) %this, ptr noundef nonnull align 8 dereferenceable(112) %obj, ptr noundef nonnull align 8 dereferenceable(64) %appendTo, ptr noundef nonnull align 8 dereferenceable(20) %fieldPosition, ptr noundef nonnull align 4 dereferenceable(4) %status) unnamed_addr #2 align 2 {
entry:
  %retval = alloca ptr, align 8
  %this.addr = alloca ptr, align 8
  %obj.addr = alloca ptr, align 8
  %appendTo.addr = alloca ptr, align 8
  %fieldPosition.addr = alloca ptr, align 8
  %status.addr = alloca ptr, align 8
  %date = alloca double, align 8
  store ptr %this, ptr %this.addr, align 8
  store ptr %obj, ptr %obj.addr, align 8
  store ptr %appendTo, ptr %appendTo.addr, align 8
  store ptr %fieldPosition, ptr %fieldPosition.addr, align 8
  store ptr %status, ptr %status.addr, align 8
  %this1 = load ptr, ptr %this.addr, align 8
  %0 = load ptr, ptr %status.addr, align 8
  %1 = load i32, ptr %0, align 4
  %call = call noundef signext i8 @_ZL9U_FAILURE10UErrorCode(i32 noundef %1)
  %tobool = icmp ne i8 %call, 0
  br i1 %tobool, label %if.then, label %if.end

if.then:                                          ; preds = %entry
  %2 = load ptr, ptr %appendTo.addr, align 8
  store ptr %2, ptr %retval, align 8
  br label %return

if.end:                                           ; preds = %entry
  store double 0.000000e+00, ptr %date, align 8
  %3 = load ptr, ptr %obj.addr, align 8
  %call2 = call noundef i32 @_ZNK6icu_7511Formattable7getTypeEv(ptr noundef nonnull align 8 dereferenceable(112) %3)
  switch i32 %call2, label %sw.default [
    i32 0, label %sw.bb
    i32 1, label %sw.bb4
    i32 2, label %sw.bb6
  ]

sw.bb:                                            ; preds = %if.end
  %4 = load ptr, ptr %obj.addr, align 8
  %call3 = call noundef double @_ZNK6icu_7511Formattable7getDateEv(ptr noundef nonnull align 8 dereferenceable(112) %4)
  store double %call3, ptr %date, align 8
  br label %sw.epilog

sw.bb4:                                           ; preds = %if.end
  %5 = load ptr, ptr %obj.addr, align 8
  %call5 = call noundef double @_ZNK6icu_7511Formattable9getDoubleEv(ptr noundef nonnull align 8 dereferenceable(112) %5)
  store double %call5, ptr %date, align 8
  br label %sw.epilog

sw.bb6:                                           ; preds = %if.end
  %6 = load ptr, ptr %obj.addr, align 8
  %call7 = call noundef i32 @_ZNK6icu_7511Formattable7getLongEv(ptr noundef nonnull align 8 dereferenceable(112) %6)
  %conv = sitofp i32 %call7 to double
  store double %conv, ptr %date, align 8
  br label %sw.epilog

sw.default:                                       ; preds = %if.end
  %7 = load ptr, ptr %status.addr, align 8
  store i32 1, ptr %7, align 4
  %8 = load ptr, ptr %appendTo.addr, align 8
  store ptr %8, ptr %retval, align 8
  br label %return

sw.epilog:                                        ; preds = %sw.bb6, %sw.bb4, %sw.bb
  %9 = load double, ptr %date, align 8
  %10 = load ptr, ptr %appendTo.addr, align 8
  %11 = load ptr, ptr %fieldPosition.addr, align 8
  %call8 = call noundef nonnull align 8 dereferenceable(64) ptr @_ZNK6icu_7510DateFormat6formatEdRNS_13UnicodeStringERNS_13FieldPositionE(ptr noundef nonnull align 8 dereferenceable(352) %this1, double noundef %9, ptr noundef nonnull align 8 dereferenceable(64) %10, ptr noundef nonnull align 8 dereferenceable(20) %11)
  store ptr %call8, ptr %retval, align 8
  br label %return

return:                                           ; preds = %sw.epilog, %sw.default, %if.then
  %12 = load ptr, ptr %retval, align 8
  ret ptr %12
}